; Function Attrs: mustprogress uwtable
define hidden void @_ZN6Assimp11MD3Importer15SetupPropertiesEPKNS_8ImporterE(ptr noundef nonnull align 8 dereferenceable(296) %this, ptr noundef nonnull %pImp) unnamed_addr #0 align 2 personality ptr @__gxx_personality_v0 {
entry:
  %ref.tmp = alloca %"class.std::__cxx11::basic_string", align 8
  %ref.tmp7 = alloca %"class.std::__cxx11::basic_string", align 8
  %ref.tmp8 = alloca %"class.std::allocator.0", align 1
  %ref.tmp14 = alloca %"class.std::__cxx11::basic_string", align 8
  %ref.tmp15 = alloca %"class.std::__cxx11::basic_string", align 8
  %ref.tmp16 = alloca %"class.std::allocator.0", align 1
  %call = tail call noundef i32 @_ZNK6Assimp8Importer18GetPropertyIntegerEPKci(ptr noundef nonnull align 8 dereferenceable(8) %pImp, ptr noundef nonnull @.str.48, i32 noundef -1)
  %configFrameID = getelementptr inbounds i8, ptr %this, i64 72
  store i32 %call, ptr %configFrameID, align 8
  %cmp = icmp eq i32 %call, -1
  br i1 %cmp, label %if.then, label %if.end

if.then:                                          ; preds = %entry
  %call3 = tail call noundef i32 @_ZNK6Assimp8Importer18GetPropertyIntegerEPKci(ptr noundef nonnull align 8 dereferenceable(8) %pImp, ptr noundef nonnull @.str.49, i32 noundef 0)
  store i32 %call3, ptr %configFrameID, align 8
  br label %if.end

if.end:                                           ; preds = %if.then, %entry
  %call5 = tail call noundef i32 @_ZNK6Assimp8Importer18GetPropertyIntegerEPKci(ptr noundef nonnull align 8 dereferenceable(8) %pImp, ptr noundef nonnull @.str.50, i32 noundef 1)
  %cmp6 = icmp ne i32 %call5, 0
  %configHandleMP = getelementptr inbounds i8, ptr %this, i64 76
  %frombool = zext i1 %cmp6 to i8
  store i8 %frombool, ptr %configHandleMP, align 4
  call void @_ZNSaIcEC1Ev(ptr noundef nonnull align 1 dereferenceable(1) %ref.tmp8) #17
  %call.i11 = invoke noundef ptr @_ZNSt7__cxx1112basic_stringIcSt11char_traitsIcESaIcEE13_M_local_dataEv(ptr noundef nonnull align 8 dereferenceable(32) %ref.tmp7)
          to label %call.i.noexc unwind label %lpad

call.i.noexc:                                     ; preds = %if.end
  invoke void @_ZNSt7__cxx1112basic_stringIcSt11char_traitsIcESaIcEE12_Alloc_hiderC1EPcRKS3_(ptr noundef nonnull align 8 dereferenceable(8) %ref.tmp7, ptr noundef %call.i11, ptr noundef nonnull align 1 dereferenceable(1) %ref.tmp8)
          to label %.noexc unwind label %lpad

.noexc:                                           ; preds = %call.i.noexc
  invoke void @_ZNSt7__cxx1112basic_stringIcSt11char_traitsIcESaIcEE12_M_constructIPKcEEvT_S8_St20forward_iterator_tag(ptr noundef nonnull align 8 dereferenceable(32) %ref.tmp7, ptr noundef nonnull @.str.52, ptr noundef nonnull getelementptr inbounds ([8 x i8], ptr @.str.52, i64 0, i64 7))
          to label %invoke.cont unwind label %lpad.i

lpad.i:                                           ; preds = %.noexc
  %0 = landingpad { ptr, i32 }
          cleanup
  call void @_ZNSaIcED2Ev(ptr noundef nonnull align 1 dereferenceable(1) %ref.tmp7) #17
  br label %eh.resume

invoke.cont:                                      ; preds = %.noexc
  invoke void @_ZNK6Assimp8Importer17GetPropertyStringEPKcRKNSt7__cxx1112basic_stringIcSt11char_traitsIcESaIcEEE(ptr nonnull sret(%"class.std::__cxx11::basic_string") align 8 %ref.tmp, ptr noundef nonnull align 8 dereferenceable(8) %pImp, ptr noundef nonnull @.str.51, ptr noundef nonnull align 8 dereferenceable(32) %ref.tmp7)
          to label %invoke.cont10 unwind label %lpad9

invoke.cont10:                                    ; preds = %invoke.cont
  %configSkinFile = getelementptr inbounds i8, ptr %this, i64 80
  %call11 = call noundef nonnull align 8 dereferenceable(32) ptr @_ZNSt7__cxx1112basic_stringIcSt11char_traitsIcESaIcEEaSEOS4_(ptr noundef nonnull align 8 dereferenceable(32) %configSkinFile, ptr noundef nonnull align 8 dereferenceable(32) %ref.tmp) #17
  call void @_ZNSt7__cxx1112basic_stringIcSt11char_traitsIcESaIcEED1Ev(ptr noundef nonnull align 8 dereferenceable(32) %ref.tmp) #17
  call void @_ZNSt7__cxx1112basic_stringIcSt11char_traitsIcESaIcEED1Ev(ptr noundef nonnull align 8 dereferenceable(32) %ref.tmp7) #17
  call void @_ZNSaIcED1Ev(ptr noundef nonnull align 1 dereferenceable(1) %ref.tmp8) #17
  %call.i = call noundef i32 @_ZNK6Assimp8Importer18GetPropertyIntegerEPKci(ptr noundef nonnull align 8 dereferenceable(8) %pImp, ptr noundef nonnull @.str.53, i32 noundef 1)
  %cmp.i = icmp ne i32 %call.i, 0
  %configLoadShaders = getelementptr inbounds i8, ptr %this, i64 112
  %frombool13 = zext i1 %cmp.i to i8
  store i8 %frombool13, ptr %configLoadShaders, align 8
  call void @_ZNSaIcEC1Ev(ptr noundef nonnull align 1 dereferenceable(1) %ref.tmp16) #17
  %call.i1216 = invoke noundef ptr @_ZNSt7__cxx1112basic_stringIcSt11char_traitsIcESaIcEE13_M_local_dataEv(ptr noundef nonnull align 8 dereferenceable(32) %ref.tmp15)
          to label %call.i12.noexc unwind label %lpad17

call.i12.noexc:                                   ; preds = %invoke.cont10
  invoke void @_ZNSt7__cxx1112basic_stringIcSt11char_traitsIcESaIcEE12_Alloc_hiderC1EPcRKS3_(ptr noundef nonnull align 8 dereferenceable(8) %ref.tmp15, ptr noundef %call.i1216, ptr noundef nonnull align 1 dereferenceable(1) %ref.tmp16)
          to label %.noexc17 unwind label %lpad17

.noexc17:                                         ; preds = %call.i12.noexc
  invoke void @_ZNSt7__cxx1112basic_stringIcSt11char_traitsIcESaIcEE12_M_constructIPKcEEvT_S8_St20forward_iterator_tag(ptr noundef nonnull align 8 dereferenceable(32) %ref.tmp15, ptr noundef nonnull @.str.55, ptr noundef nonnull @.str.55)
          to label %invoke.cont18 unwind label %lpad.i15

lpad.i15:                                         ; preds = %.noexc17
  %1 = landingpad { ptr, i32 }
          cleanup
  call void @_ZNSaIcED2Ev(ptr noundef nonnull align 1 dereferenceable(1) %ref.tmp15) #17
  br label %eh.resume

invoke.cont18:                                    ; preds = %.noexc17
  invoke void @_ZNK6Assimp8Importer17GetPropertyStringEPKcRKNSt7__cxx1112basic_stringIcSt11char_traitsIcESaIcEEE(ptr nonnull sret(%"class.std::__cxx11::basic_string") align 8 %ref.tmp14, ptr noundef nonnull align 8 dereferenceable(8) %pImp, ptr noundef nonnull @.str.54, ptr noundef nonnull align 8 dereferenceable(32) %ref.tmp15)
          to label %invoke.cont20 unwind label %lpad19

invoke.cont20:                                    ; preds = %invoke.cont18
  %configShaderFile = getelementptr inbounds i8, ptr %this, i64 120
  %call21 = call noundef nonnull align 8 dereferenceable(32) ptr @_ZNSt7__cxx1112basic_stringIcSt11char_traitsIcESaIcEEaSEOS4_(ptr noundef nonnull align 8 dereferenceable(32) %configShaderFile, ptr noundef nonnull align 8 dereferenceable(32) %ref.tmp14) #17
  call void @_ZNSt7__cxx1112basic_stringIcSt11char_traitsIcESaIcEED1Ev(ptr noundef nonnull align 8 dereferenceable(32) %ref.tmp14) #17
  call void @_ZNSt7__cxx1112basic_stringIcSt11char_traitsIcESaIcEED1Ev(ptr noundef nonnull align 8 dereferenceable(32) %ref.tmp15) #17
  call void @_ZNSaIcED1Ev(ptr noundef nonnull align 1 dereferenceable(1) %ref.tmp16) #17
  %call24 = call noundef i32 @_ZNK6Assimp8Importer18GetPropertyIntegerEPKci(ptr noundef nonnull align 8 dereferenceable(8) %pImp, ptr noundef nonnull @.str.56, i32 noundef 0)
  %cmp25 = icmp ne i32 %call24, 0
  %configSpeedFlag = getelementptr inbounds i8, ptr %this, i64 152
  %frombool26 = zext i1 %cmp25 to i8
  store i8 %frombool26, ptr %configSpeedFlag, align 8
  ret void

lpad:                                             ; preds = %call.i.noexc, %if.end
  %2 = landingpad { ptr, i32 }
          cleanup
  br label %eh.resume

lpad9:                                            ; preds = %invoke.cont
  %3 = landingpad { ptr, i32 }
          cleanup
  call void @_ZNSt7__cxx1112basic_stringIcSt11char_traitsIcESaIcEED1Ev(ptr noundef nonnull align 8 dereferenceable(32) %ref.tmp7) #17
  br label %eh.resume

lpad17:                                           ; preds = %call.i12.noexc, %invoke.cont10
  %4 = landingpad { ptr, i32 }
          cleanup
  br label %eh.resume

lpad19:                                           ; preds = %invoke.cont18
  %5 = landingpad { ptr, i32 }
          cleanup
  call void @_ZNSt7__cxx1112basic_stringIcSt11char_traitsIcESaIcEED1Ev(ptr noundef nonnull align 8 dereferenceable(32) %ref.tmp15) #17
  br label %eh.resume

eh.resume:                                        ; preds = %lpad19, %lpad.i15, %lpad17, %lpad9, %lpad.i, %lpad
  %ref.tmp16.sink = phi ptr [ %ref.tmp8, %lpad ], [ %ref.tmp8, %lpad.i ], [ %ref.tmp8, %lpad9 ], [ %ref.tmp16, %lpad17 ], [ %ref.tmp16, %lpad.i15 ], [ %ref.tmp16, %lpad19 ]
  %.pn8.pn = phi { ptr, i32 } [ %2, %lpad ], [ %0, %lpad.i ], [ %3, %lpad9 ], [ %4, %lpad17 ], [ %1, %lpad.i15 ], [ %5, %lpad19 ]
  call void @_ZNSaIcED1Ev(ptr noundef nonnull align 1 dereferenceable(1) %ref.tmp16.sink) #17
  resume { ptr, i32 } %.pn8.pn
}